target datalayout = "e-m:e-p270:32:32-p271:32:32-p272:64:64-i64:64-i128:128-f80:128-n8:16:32:64-S128"
target triple = "x86_64-pc-linux-gnu"

%"struct.XDR::xdr_ops" = type { ptr, ptr, ptr, ptr, ptr, ptr, ptr, ptr, ptr, ptr }
%struct.XDR = type { i32, ptr, ptr, ptr, ptr, i32 }

; Function Attrs: mustprogress uwtable
define noundef i32 @_Z11xdr_u_shortP3XDRPt(ptr noundef %0, ptr noundef %1) #0 {
  %3 = alloca i32, align 4
  %4 = alloca ptr, align 8
  %5 = alloca ptr, align 8
  %6 = alloca i32, align 4
  store ptr %0, ptr %4, align 8
  store ptr %1, ptr %5, align 8
  %7 = load ptr, ptr %4, align 8
  %8 = getelementptr inbounds %struct.XDR, ptr %7, i32 0, i32 0
  %9 = load i32, ptr %8, align 8
  switch i32 %9, label %36 [
    i32 0, label %10
    i32 1, label %21
    i32 2, label %35
  ]

10:                                               ; preds = %2
  %11 = load ptr, ptr %5, align 8
  %12 = load i16, ptr %11, align 2
  %13 = zext i16 %12 to i32
  store i32 %13, ptr %6, align 4
  %14 = load ptr, ptr %4, align 8
  %15 = getelementptr inbounds %struct.XDR, ptr %14, i32 0, i32 1
  %16 = load ptr, ptr %15, align 8
  %17 = getelementptr inbounds %"struct.XDR::xdr_ops", ptr %16, i32 0, i32 9
  %18 = load ptr, ptr %17, align 8
  %19 = load ptr, ptr %4, align 8
  %20 = call noundef i32 %18(ptr noundef %19, ptr noundef %6)
  store i32 %20, ptr %3, align 4
  br label %37

21:                                               ; preds = %2
  %22 = load ptr, ptr %4, align 8
  %23 = getelementptr inbounds %struct.XDR, ptr %22, i32 0, i32 1
  %24 = load ptr, ptr %23, align 8
  %25 = getelementptr inbounds %"struct.XDR::xdr_ops", ptr %24, i32 0, i32 8
  %26 = load ptr, ptr %25, align 8
  %27 = load ptr, ptr %4, align 8
  %28 = call noundef i32 %26(ptr noundef %27, ptr noundef %6)
  %29 = icmp ne i32 %28, 0
  br i1 %29, label %31, label %30

30:                                               ; preds = %21
  store i32 0, ptr %3, align 4
  br label %37

31:                                               ; preds = %21
  %32 = load i32, ptr %6, align 4
  %33 = trunc i32 %32 to i16
  %34 = load ptr, ptr %5, align 8
  store i16 %33, ptr %34, align 2
  store i32 1, ptr %3, align 4
  br label %37

35:                                               ; preds = %2
  store i32 1, ptr %3, align 4
  br label %37

36:                                               ; preds = %2
  store i32 0, ptr %3, align 4
  br label %37

37:                                               ; preds = %36, %35, %31, %30, %10
  %38 = load i32, ptr %3, align 4
  ret i32 %38
}