; Function Attrs: mustprogress uwtable
define noundef i32 @_Z11xdr_u_shortP3XDRPt(ptr noundef %0, ptr nocapture noundef %1) local_unnamed_addr #0 {
  %3 = alloca i32, align 4
  %4 = load i32, ptr %0, align 8
  switch i32 %4, label %22 [
    i32 0, label %5
    i32 1, label %13
    i32 2, label %23
  ]

5:                                                ; preds = %2
  %6 = load i16, ptr %1, align 2
  %7 = zext i16 %6 to i32
  store i32 %7, ptr %3, align 4
  %8 = getelementptr inbounds i8, ptr %0, i64 8
  %9 = load ptr, ptr %8, align 8
  %10 = getelementptr inbounds i8, ptr %9, i64 72
  %11 = load ptr, ptr %10, align 8
  %12 = call noundef i32 %11(ptr noundef nonnull %0, ptr noundef nonnull %3)
  br label %23

13:                                               ; preds = %2
  %14 = getelementptr inbounds i8, ptr %0, i64 8
  %15 = load ptr, ptr %14, align 8
  %16 = getelementptr inbounds i8, ptr %15, i64 64
  %17 = load ptr, ptr %16, align 8
  %18 = call noundef i32 %17(ptr noundef nonnull %0, ptr noundef nonnull %3)
  %.not = icmp eq i32 %18, 0
  br i1 %.not, label %23, label %19

19:                                               ; preds = %13
  %20 = load i32, ptr %3, align 4
  %21 = trunc i32 %20 to i16
  store i16 %21, ptr %1, align 2
  br label %23

22:                                               ; preds = %2
  br label %23

23:                                               ; preds = %2, %13, %22, %19, %5
  %.0 = phi i32 [ 0, %22 ], [ 1, %19 ], [ %12, %5 ], [ 0, %13 ], [ 1, %2 ]
  ret i32 %.0
}